; Function Attrs: mustprogress uwtable
define void @_ZN5faiss15IndexBinaryFlatC2El(ptr noundef nonnull align 8 dereferenceable(76) %0, i64 noundef %1) unnamed_addr #2 align 2 {
  tail call void @_ZN5faiss11IndexBinaryC2ElNS_10MetricTypeE(ptr noundef nonnull align 8 dereferenceable(32) %0, i64 noundef %1, i32 noundef 1)
  store ptr getelementptr inbounds ({ [16 x ptr] }, ptr @_ZTVN5faiss15IndexBinaryFlatE, i64 0, i32 0, i64 2), ptr %0, align 8
  %3 = getelementptr inbounds i8, ptr %0, i64 32
  tail call void @llvm.memset.p0.i64(ptr noundef nonnull align 8 dereferenceable(24) %3, i8 0, i64 24, i1 false)
  %4 = getelementptr inbounds i8, ptr %0, i64 56
  store i8 1, ptr %4, align 8
  %5 = getelementptr inbounds i8, ptr %0, i64 64
  store i64 32, ptr %5, align 8
  %6 = getelementptr inbounds i8, ptr %0, i64 72
  store i32 0, ptr %6, align 8
  ret void
}